target datalayout = "e-m:e-p270:32:32-p271:32:32-p272:64:64-i64:64-i128:128-f80:128-n8:16:32:64-S128"
target triple = "x86_64-pc-linux-gnu"

%struct.redisServer = type { i32, i64, ptr, ptr, ptr, i32, i32, i32, i32, i32, ptr, ptr, ptr, ptr, ptr, i32, i32, i32, i32, i64, i32, i32, i32, i32, ptr, i32, i32, [41 x i8], i32, i64, i32, i32, i32, ptr, ptr, i32, i32, i64, ptr, ptr, ptr, ptr, [2 x i32], i32, i32, i32, i32, i32, i32, [16 x ptr], i32, ptr, ptr, i32, [8 x %struct.connListener], i32, %struct.connListener, ptr, ptr, ptr, ptr, ptr, ptr, ptr, ptr, ptr, ptr, i32, ptr, i32, ptr, [3 x %struct.pause_event], [256 x i8], ptr, i64, i32, i32, [128 x i32], i32, i32, i64, i32, i32, i32, i32, i32, i64, i64, i64, i64, i64, i64, i64, i64, i64, i64, double, i64, i64, i64, i64, i64, i64, i64, i64, i64, i64, i64, i64, i64, i64, i64, i64, i64, i64, i64, i64, i64, double, i64, i64, i64, i64, i64, ptr, i64, i64, i64, %struct.malloc_stats, i64, i64, i64, i64, i64, i64, i64, i64, i64, i64, i64, i64, double, [4 x i64], i64, i64, i64, i64, [128 x i64], [128 x i64], i64, i64, [7 x %struct.anon], i64, i64, i64, i64, i64, i64, [4 x %struct.durationStats], i32, i32, i32, i32, i32, i32, i32, i32, i32, i32, i32, i32, i64, i32, i32, i32, i32, i64, i64, i32, i32, i32, i32, i32, ptr, [3 x %struct.clientBufferLimitsConfig], i32, i32, i32, ptr, i32, i32, i32, i32, i32, i32, ptr, ptr, i32, i32, i64, i64, i64, i64, i64, i32, i32, ptr, i32, i32, i64, i64, i64, i64, i64, i32, i32, i64, i32, i32, i32, i32, i32, i32, i32, i32, ptr, i32, i64, i64, i64, i64, i32, ptr, i32, ptr, i32, i32, i32, i64, i64, i64, i64, i32, i32, i32, i32, i32, i32, ptr, i32, i32, ptr, i32, i32, i32, [2 x i32], i32, %struct.redisOpArray, i32, ptr, i32, ptr, i32, i32, i32, i32, i32, i32, i32, [41 x i8], [41 x i8], i64, i64, i64, i64, i32, i32, ptr, i64, i64, %struct.replDataBuf, i64, i64, i32, i32, i32, i32, i32, i32, i32, i32, i32, i64, ptr, i64, ptr, ptr, ptr, i32, i32, ptr, ptr, i32, i32, i32, i64, i64, i64, i64, ptr, ptr, i32, ptr, i64, i32, i32, i32, i64, i32, i32, i32, i32, ptr, i32, i32, [41 x i8], i64, i32, ptr, i32, i32, i64, i64, i32, i32, i32, i32, i32, i64, [3 x i32], i32, i32, i32, [10 x i32], ptr, ptr, i32, i64, ptr, ptr, i32, i32, i32, i32, i64, i64, i64, i64, i64, i64, i64, i64, i64, i64, i32, i32, i64, i64, i32, i64, i64, i64, i64, i64, ptr, ptr, i32, ptr, i32, i32, i32, i32, i64, i64, ptr, ptr, i32, i32, i32, i32, i32, ptr, ptr, ptr, i32, i32, i32, i32, i32, i32, i32, i64, i32, i32, i64, i32, i32, i32, i32, i32, i32, i32, i64, ptr, ptr, i64, ptr, i32, %struct.aclInfo, i32, i64, i32, i32, i32, %struct.redisTLSContextConfig, ptr, ptr, ptr, ptr, ptr, i64, i32, ptr, i32, i32, i32, i64, i32, ptr }
%struct.connListener = type { [16 x i32], i32, ptr, i32, i32, ptr, ptr }
%struct.pause_event = type { i32, i64 }
%struct.malloc_stats = type { i64, i64, i64, i64, i64, i64, i64, i64, i64, i64, i64 }
%struct.anon = type { i64, i64, [16 x i64], i32 }
%struct.durationStats = type { i64, i64, i64 }
%struct.clientBufferLimitsConfig = type { i64, i64, i64 }
%struct.redisOpArray = type { ptr, i32, i32 }
%struct.replDataBuf = type { ptr, i64, i64, i64, i64 }
%struct.aclInfo = type { i64, i64, i64, i64 }
%struct.redisTLSContextConfig = type { ptr, ptr, ptr, ptr, ptr, ptr, ptr, ptr, ptr, ptr, ptr, ptr, i32, i32, i32, i32 }
%struct.client = type { i64, i64, ptr, i8, i8, i8, i8, i32, ptr, ptr, ptr, ptr, ptr, i64, i64, i32, ptr, i32, i32, ptr, i64, ptr, ptr, ptr, ptr, ptr, i32, i32, i64, ptr, i64, ptr, i64, i64, i64, i32, ptr, i64, i64, i32, i32, i32, i32, i64, i64, ptr, i64, i64, i64, i64, i64, i64, i64, i64, [41 x i8], i32, ptr, i32, i32, i64, %struct.multiState, %struct.blockingState, i64, ptr, ptr, ptr, ptr, ptr, ptr, ptr, ptr, ptr, ptr, ptr, ptr, ptr, ptr, i64, ptr, i64, i32, ptr, ptr, ptr, i64, %struct.listNode, i64, i64, i32, i64, ptr }
%struct.multiState = type { ptr, i32, i32, i32, i64, i32 }
%struct.blockingState = type { i32, i64, i32, ptr, i32, i32, i64, ptr, ptr, i64 }
%struct.listNode = type { ptr, ptr, ptr }
%struct.connection = type { ptr, i32, i32, i32, i16, i16, i16, ptr, ptr, ptr, ptr, ptr }
%struct.ConnectionType = type { ptr, ptr, ptr, ptr, ptr, ptr, ptr, ptr, ptr, ptr, ptr, ptr, ptr, ptr, ptr, ptr, ptr, ptr, ptr, ptr, ptr, ptr, ptr, ptr, ptr, ptr, ptr, ptr, ptr, ptr }

@server = external global %struct.redisServer, align 8
@.str.88 = private unnamed_addr constant [5 x i8] c"%s:0\00", align 1
@.str.247 = private unnamed_addr constant [8 x i8] c"[%s]:%d\00", align 1
@.str.248 = private unnamed_addr constant [6 x i8] c"%s:%d\00", align 1

; Function Attrs: inlinehint nounwind uwtable
define internal i32 @formatAddr(ptr noundef %0, i64 noundef %1, ptr noundef %2, i32 noundef %3) #4 {
  %5 = alloca ptr, align 8
  %6 = alloca i64, align 8
  %7 = alloca ptr, align 8
  %8 = alloca i32, align 4
  store ptr %0, ptr %5, align 8, !tbaa !5
  store i64 %1, ptr %6, align 8, !tbaa !20
  store ptr %2, ptr %7, align 8, !tbaa !5
  store i32 %3, ptr %8, align 4, !tbaa !19
  %9 = load ptr, ptr %5, align 8, !tbaa !5
  %10 = load i64, ptr %6, align 8, !tbaa !20
  %11 = load ptr, ptr %7, align 8, !tbaa !5
  %12 = call ptr @strchr(ptr noundef %11, i32 noundef 58) #20
  %13 = icmp ne ptr %12, null
  %14 = select i1 %13, ptr @.str.247, ptr @.str.248
  %15 = load ptr, ptr %7, align 8, !tbaa !5
  %16 = load i32, ptr %8, align 4, !tbaa !19
  %17 = call i32 (ptr, i64, ptr, ...) @snprintf(ptr noundef %9, i64 noundef %10, ptr noundef %14, ptr noundef %15, i32 noundef %16) #16
  ret i32 %17
}

; Function Attrs: inlinehint nounwind uwtable
define internal i32 @connAddr(ptr noundef %0, ptr noundef %1, i64 noundef %2, ptr noundef %3, i32 noundef %4) #4 {
  %6 = alloca i32, align 4
  %7 = alloca ptr, align 8
  %8 = alloca ptr, align 8
  %9 = alloca i64, align 8
  %10 = alloca ptr, align 8
  %11 = alloca i32, align 4
  store ptr %0, ptr %7, align 8, !tbaa !69
  store ptr %1, ptr %8, align 8, !tbaa !5
  store i64 %2, ptr %9, align 8, !tbaa !20
  store ptr %3, ptr %10, align 8, !tbaa !300
  store i32 %4, ptr %11, align 4, !tbaa !19
  %12 = load ptr, ptr %7, align 8, !tbaa !69
  %13 = icmp ne ptr %12, null
  br i1 %13, label %14, label %33

14:                                               ; preds = %5
  %15 = load ptr, ptr %7, align 8, !tbaa !69
  %16 = getelementptr inbounds nuw %struct.connection, ptr %15, i32 0, i32 0
  %17 = load ptr, ptr %16, align 8, !tbaa !151
  %18 = getelementptr inbounds nuw %struct.ConnectionType, ptr %17, i32 0, i32 6
  %19 = load ptr, ptr %18, align 8, !tbaa !327
  %20 = icmp ne ptr %19, null
  br i1 %20, label %21, label %33

21:                                               ; preds = %14
  %22 = load ptr, ptr %7, align 8, !tbaa !69
  %23 = getelementptr inbounds nuw %struct.connection, ptr %22, i32 0, i32 0
  %24 = load ptr, ptr %23, align 8, !tbaa !151
  %25 = getelementptr inbounds nuw %struct.ConnectionType, ptr %24, i32 0, i32 6
  %26 = load ptr, ptr %25, align 8, !tbaa !327
  %27 = load ptr, ptr %7, align 8, !tbaa !69
  %28 = load ptr, ptr %8, align 8, !tbaa !5
  %29 = load i64, ptr %9, align 8, !tbaa !20
  %30 = load ptr, ptr %10, align 8, !tbaa !300
  %31 = load i32, ptr %11, align 4, !tbaa !19
  %32 = call i32 %26(ptr noundef %27, ptr noundef %28, i64 noundef %29, ptr noundef %30, i32 noundef %31)
  store i32 %32, ptr %6, align 4
  br label %34

33:                                               ; preds = %14, %5
  store i32 -1, ptr %6, align 4
  br label %34

34:                                               ; preds = %33, %21
  %35 = load i32, ptr %6, align 4
  ret i32 %35
}

; Function Attrs: inlinehint nounwind uwtable
define internal i32 @connFormatAddr(ptr noundef %0, ptr noundef %1, i64 noundef %2, i32 noundef %3) #4 {
  %5 = alloca i32, align 4
  %6 = alloca ptr, align 8
  %7 = alloca ptr, align 8
  %8 = alloca i64, align 8
  %9 = alloca i32, align 4
  %10 = alloca [128 x i8], align 16
  %11 = alloca i32, align 4
  %12 = alloca i32, align 4
  store ptr %0, ptr %6, align 8, !tbaa !69
  store ptr %1, ptr %7, align 8, !tbaa !5
  store i64 %2, ptr %8, align 8, !tbaa !20
  store i32 %3, ptr %9, align 4, !tbaa !19
  call void @llvm.lifetime.start.p0(i64 128, ptr %10) #16
  call void @llvm.lifetime.start.p0(i64 4, ptr %11) #16
  %13 = load ptr, ptr %6, align 8, !tbaa !69
  %14 = getelementptr inbounds [128 x i8], ptr %10, i64 0, i64 0
  %15 = load i32, ptr %9, align 4, !tbaa !19
  %16 = call i32 @connAddr(ptr noundef %13, ptr noundef %14, i64 noundef 128, ptr noundef %11, i32 noundef %15)
  %17 = icmp slt i32 %16, 0
  br i1 %17, label %18, label %19

18:                                               ; preds = %4
  store i32 -1, ptr %5, align 4
  store i32 1, ptr %12, align 4
  br label %25

19:                                               ; preds = %4
  %20 = load ptr, ptr %7, align 8, !tbaa !5
  %21 = load i64, ptr %8, align 8, !tbaa !20
  %22 = getelementptr inbounds [128 x i8], ptr %10, i64 0, i64 0
  %23 = load i32, ptr %11, align 4, !tbaa !19
  %24 = call i32 @formatAddr(ptr noundef %20, i64 noundef %21, ptr noundef %22, i32 noundef %23)
  store i32 %24, ptr %5, align 4
  store i32 1, ptr %12, align 4
  br label %25

25:                                               ; preds = %19, %18
  call void @llvm.lifetime.end.p0(i64 4, ptr %11) #16
  call void @llvm.lifetime.end.p0(i64 128, ptr %10) #16
  %26 = load i32, ptr %5, align 4
  ret i32 %26
}

; Function Attrs: nounwind uwtable
define dso_local void @genClientAddrString(ptr noundef %0, ptr noundef %1, i64 noundef %2, i32 noundef %3) #0 {
  %5 = alloca ptr, align 8
  %6 = alloca ptr, align 8
  %7 = alloca i64, align 8
  %8 = alloca i32, align 4
  store ptr %0, ptr %5, align 8, !tbaa !24
  store ptr %1, ptr %6, align 8, !tbaa !5
  store i64 %2, ptr %7, align 8, !tbaa !20
  store i32 %3, ptr %8, align 4, !tbaa !19
  %9 = load ptr, ptr %5, align 8, !tbaa !24
  %10 = getelementptr inbounds nuw %struct.client, ptr %9, i32 0, i32 1
  %11 = load i64, ptr %10, align 8, !tbaa !104
  %12 = and i64 %11, 2048
  %13 = icmp ne i64 %12, 0
  br i1 %13, label %14, label %19

14:                                               ; preds = %4
  %15 = load ptr, ptr %6, align 8, !tbaa !5
  %16 = load i64, ptr %7, align 8, !tbaa !20
  %17 = load ptr, ptr getelementptr inbounds nuw (%struct.redisServer, ptr @server, i32 0, i32 52), align 8, !tbaa !275
  %18 = call i32 (ptr, i64, ptr, ...) @snprintf(ptr noundef %15, i64 noundef %16, ptr noundef @.str.88, ptr noundef %17) #16
  br label %27

19:                                               ; preds = %4
  %20 = load ptr, ptr %5, align 8, !tbaa !24
  %21 = getelementptr inbounds nuw %struct.client, ptr %20, i32 0, i32 2
  %22 = load ptr, ptr %21, align 8, !tbaa !75
  %23 = load ptr, ptr %6, align 8, !tbaa !5
  %24 = load i64, ptr %7, align 8, !tbaa !20
  %25 = load i32, ptr %8, align 4, !tbaa !19
  %26 = call i32 @connFormatAddr(ptr noundef %22, ptr noundef %23, i64 noundef %24, i32 noundef %25)
  br label %27

27:                                               ; preds = %19, %14
  ret void
}