; Function Attrs: nounwind uwtable
define dso_local void @genClientAddrString(ptr noundef readonly captures(none) %0, ptr noundef writeonly captures(none) %1, i64 noundef %2, i32 noundef %3) local_unnamed_addr #0 {
  %5 = alloca [128 x i8], align 16
  %6 = alloca i32, align 4
  %7 = getelementptr inbounds nuw i8, ptr %0, i64 8
  %8 = load i64, ptr %7, align 8, !tbaa !86
  %9 = and i64 %8, 2048
  %.not = icmp eq i64 %9, 0
  br i1 %.not, label %13, label %10

10:                                               ; preds = %4
  %11 = load ptr, ptr getelementptr inbounds nuw (i8, ptr @server, i64 472), align 8, !tbaa !184
  %12 = tail call i32 (ptr, i64, ptr, ...) @snprintf(ptr noundef %1, i64 noundef %2, ptr noundef nonnull @.str.88, ptr noundef %11) #26
  br label %27

13:                                               ; preds = %4
  %14 = getelementptr inbounds nuw i8, ptr %0, i64 16
  %15 = load ptr, ptr %14, align 8, !tbaa !75
  call void @llvm.lifetime.start.p0(i64 128, ptr nonnull %5) #26
  call void @llvm.lifetime.start.p0(i64 4, ptr nonnull %6) #26
  %.not.i.i = icmp eq ptr %15, null
  br i1 %.not.i.i, label %connFormatAddr.exit, label %16

16:                                               ; preds = %13
  %17 = load ptr, ptr %15, align 8, !tbaa !66
  %18 = getelementptr inbounds nuw i8, ptr %17, i64 48
  %19 = load ptr, ptr %18, align 8, !tbaa !185
  %.not10.i.i = icmp eq ptr %19, null
  br i1 %.not10.i.i, label %connFormatAddr.exit, label %connAddr.exit.i

connAddr.exit.i:                                  ; preds = %16
  %20 = call i32 %19(ptr noundef nonnull %15, ptr noundef nonnull %5, i64 noundef 128, ptr noundef nonnull %6, i32 noundef %3) #26
  %21 = icmp slt i32 %20, 0
  br i1 %21, label %connFormatAddr.exit, label %22

22:                                               ; preds = %connAddr.exit.i
  %23 = load i32, ptr %6, align 4, !tbaa !15
  %24 = call ptr @strchr(ptr noundef nonnull dereferenceable(1) %5, i32 noundef 58) #30
  %.not.i4.i = icmp eq ptr %24, null
  %25 = select i1 %.not.i4.i, ptr @.str.248, ptr @.str.247
  %26 = call noundef i32 (ptr, i64, ptr, ...) @snprintf(ptr noundef %1, i64 noundef %2, ptr noundef nonnull %25, ptr noundef nonnull %5, i32 noundef %23) #26
  br label %connFormatAddr.exit

connFormatAddr.exit:                              ; preds = %13, %16, %connAddr.exit.i, %22
  call void @llvm.lifetime.end.p0(i64 4, ptr nonnull %6) #26
  call void @llvm.lifetime.end.p0(i64 128, ptr nonnull %5) #26
  br label %27

27:                                               ; preds = %connFormatAddr.exit, %10
  ret void
}